; Function Attrs: nounwind uwtable
define dso_local noundef i32 @topology_p_topology_print(ptr noundef readonly captures(none) %0, ptr noundef %1, ptr noundef initializes((0, 8)) %2) local_unnamed_addr #0 {
  store ptr null, ptr %2, align 8
  %4 = icmp eq ptr %1, null
  br i1 %4, label %10, label %5

5:                                                ; preds = %3
  %6 = load i8, ptr %1, align 1
  %7 = icmp eq i8 %6, 0
  br i1 %7, label %10, label %.preheader47

.preheader47:                                     ; preds = %5
  %8 = load i32, ptr %0, align 8
  %.not56 = icmp eq i32 %8, 0
  br i1 %.not56, label %._crit_edge.thread, label %.lr.ph

.lr.ph:                                           ; preds = %.preheader47
  %9 = getelementptr inbounds nuw i8, ptr %0, i64 8
  br label %28

10:                                               ; preds = %5, %3
  %11 = load i32, ptr %0, align 8
  %12 = icmp eq i32 %11, 0
  br i1 %12, label %14, label %.lr.ph55

.lr.ph55:                                         ; preds = %10
  %13 = getelementptr inbounds nuw i8, ptr %0, i64 8
  br label %16

14:                                               ; preds = %10
  %15 = tail call i32 (ptr, ...) @slurm_error(ptr noundef nonnull @.str.5) #9
  br label %.loopexit

16:                                               ; preds = %.lr.ph55, %16
  %indvars.iv64 = phi i64 [ 0, %.lr.ph55 ], [ %indvars.iv.next65, %16 ]
  %17 = load ptr, ptr %13, align 8
  %18 = getelementptr inbounds nuw %struct.topoinfo_bblock, ptr %17, i64 %indvars.iv64
  tail call fastcc void @_print_topo_record(ptr noundef %18, ptr noundef nonnull %2)
  %indvars.iv.next65 = add nuw nsw i64 %indvars.iv64, 1
  %19 = load i32, ptr %0, align 8
  %20 = zext i32 %19 to i64
  %21 = icmp samesign ult i64 %indvars.iv.next65, %20
  br i1 %21, label %16, label %.loopexit, !llvm.loop !19

22:                                               ; preds = %28
  %indvars.iv.next = add nuw nsw i64 %indvars.iv, 1
  %23 = load i32, ptr %0, align 8
  %24 = zext i32 %23 to i64
  %25 = icmp samesign ult i64 %indvars.iv.next, %24
  br i1 %25, label %28, label %.preheader46, !llvm.loop !20

.preheader46:                                     ; preds = %22
  %26 = icmp eq i32 %23, 0
  br i1 %26, label %._crit_edge.thread, label %.lr.ph53

.lr.ph53:                                         ; preds = %.preheader46
  %27 = getelementptr inbounds nuw i8, ptr %0, i64 8
  br label %36

28:                                               ; preds = %.lr.ph, %22
  %indvars.iv = phi i64 [ 0, %.lr.ph ], [ %indvars.iv.next, %22 ]
  %29 = load ptr, ptr %9, align 8
  %30 = getelementptr inbounds nuw %struct.topoinfo_bblock, ptr %29, i64 %indvars.iv, i32 2
  %31 = load ptr, ptr %30, align 8
  %32 = tail call i32 @slurm_xstrcmp(ptr noundef %31, ptr noundef nonnull %1) #9
  %.not45 = icmp eq i32 %32, 0
  br i1 %.not45, label %33, label %22

33:                                               ; preds = %28
  %34 = load ptr, ptr %9, align 8
  %35 = getelementptr inbounds nuw %struct.topoinfo_bblock, ptr %34, i64 %indvars.iv
  tail call fastcc void @_print_topo_record(ptr noundef %35, ptr noundef nonnull %2)
  br label %.loopexit

36:                                               ; preds = %.lr.ph53, %54
  %indvars.iv61 = phi i64 [ 0, %.lr.ph53 ], [ %indvars.iv.next62, %54 ]
  %.04151 = phi i32 [ 0, %.lr.ph53 ], [ %.142, %54 ]
  %37 = load ptr, ptr %27, align 8
  %38 = getelementptr inbounds nuw %struct.topoinfo_bblock, ptr %37, i64 %indvars.iv61, i32 3
  %39 = load ptr, ptr %38, align 8
  %40 = icmp eq ptr %39, null
  br i1 %40, label %54, label %41

41:                                               ; preds = %36
  %42 = load i8, ptr %39, align 1
  %43 = icmp eq i8 %42, 0
  br i1 %43, label %54, label %44

44:                                               ; preds = %41
  %45 = tail call ptr @slurm_hostset_create(ptr noundef nonnull %39) #9
  %46 = icmp eq ptr %45, null
  br i1 %46, label %47, label %48

47:                                               ; preds = %44
  tail call void (ptr, ...) @slurm_fatal(ptr noundef nonnull @.str.6) #11
  unreachable

48:                                               ; preds = %44
  %49 = tail call i32 @slurm_hostset_within(ptr noundef nonnull %45, ptr noundef nonnull %1) #9
  tail call void @slurm_hostset_destroy(ptr noundef nonnull %45) #9
  %.not = icmp eq i32 %49, 0
  br i1 %.not, label %54, label %50

50:                                               ; preds = %48
  %51 = add nsw i32 %.04151, 1
  %52 = load ptr, ptr %27, align 8
  %53 = getelementptr inbounds nuw %struct.topoinfo_bblock, ptr %52, i64 %indvars.iv61
  tail call fastcc void @_print_topo_record(ptr noundef %53, ptr noundef nonnull %2)
  br label %54

54:                                               ; preds = %48, %36, %41, %50
  %.142 = phi i32 [ %51, %50 ], [ %.04151, %41 ], [ %.04151, %36 ], [ %.04151, %48 ]
  %indvars.iv.next62 = add nuw nsw i64 %indvars.iv61, 1
  %55 = load i32, ptr %0, align 8
  %56 = zext i32 %55 to i64
  %57 = icmp samesign ult i64 %indvars.iv.next62, %56
  br i1 %57, label %36, label %._crit_edge, !llvm.loop !21

._crit_edge:                                      ; preds = %54
  %58 = icmp eq i32 %.142, 0
  br i1 %58, label %._crit_edge.thread, label %.loopexit

._crit_edge.thread:                               ; preds = %.preheader47, %.preheader46, %._crit_edge
  %59 = tail call i32 (ptr, ...) @slurm_error(ptr noundef nonnull @.str.7, ptr noundef nonnull %1) #9
  br label %.loopexit

.loopexit:                                        ; preds = %16, %._crit_edge, %._crit_edge.thread, %33, %14
  ret i32 0
}